target datalayout = "e-m:e-p270:32:32-p271:32:32-p272:64:64-i64:64-i128:128-f80:128-n8:16:32:64-S128"
target triple = "x86_64-pc-linux-gnu"

%struct._mka_ckn_info_key = type { ptr, i32 }

; Function Attrs: nounwind null_pointer_is_valid sspstrong uwtable
define internal i32 @ckn_key_hash_func(ptr noundef %0) #7 {
  %2 = alloca ptr, align 8
  %3 = alloca ptr, align 8
  %4 = alloca i64, align 8
  %5 = alloca i32, align 4
  %6 = alloca ptr, align 8
  store ptr %0, ptr %2, align 8
  call void @llvm.lifetime.start.p0(i64 8, ptr %3) #8
  %7 = load ptr, ptr %2, align 8
  store ptr %7, ptr %3, align 8
  call void @llvm.lifetime.start.p0(i64 8, ptr %4) #8
  call void @llvm.lifetime.start.p0(i64 4, ptr %5) #8
  store i32 0, ptr %5, align 4
  call void @llvm.lifetime.start.p0(i64 8, ptr %6) #8
  %8 = load ptr, ptr %3, align 8
  %9 = getelementptr inbounds nuw %struct._mka_ckn_info_key, ptr %8, i32 0, i32 0
  %10 = load ptr, ptr %9, align 8
  store ptr %10, ptr %6, align 8
  store i64 0, ptr %4, align 8
  br label %11

11:                                               ; preds = %31, %1
  %12 = load i64, ptr %4, align 8
  %13 = load ptr, ptr %3, align 8
  %14 = getelementptr inbounds nuw %struct._mka_ckn_info_key, ptr %13, i32 0, i32 1
  %15 = load i32, ptr %14, align 8
  %16 = zext i32 %15 to i64
  %17 = icmp ult i64 %12, %16
  br i1 %17, label %18, label %34

18:                                               ; preds = %11
  %19 = load ptr, ptr %6, align 8
  %20 = load i64, ptr %4, align 8
  %21 = getelementptr i8, ptr %19, i64 %20
  %22 = load i8, ptr %21, align 1
  %23 = zext i8 %22 to i32
  %24 = load i64, ptr %4, align 8
  %25 = urem i64 %24, 4
  %26 = mul i64 8, %25
  %27 = trunc i64 %26 to i32
  %28 = shl i32 %23, %27
  %29 = load i32, ptr %5, align 4
  %30 = xor i32 %29, %28
  store i32 %30, ptr %5, align 4
  br label %31

31:                                               ; preds = %18
  %32 = load i64, ptr %4, align 8
  %33 = add i64 %32, 1
  store i64 %33, ptr %4, align 8
  br label %11, !llvm.loop !14

34:                                               ; preds = %11
  %35 = load i32, ptr %5, align 4
  call void @llvm.lifetime.end.p0(i64 8, ptr %6) #8
  call void @llvm.lifetime.end.p0(i64 4, ptr %5) #8
  call void @llvm.lifetime.end.p0(i64 8, ptr %4) #8
  call void @llvm.lifetime.end.p0(i64 8, ptr %3) #8
  ret i32 %35
}