; Function Attrs: nofree norecurse nosync nounwind null_pointer_is_valid sspstrong memory(read, inaccessiblemem: none) uwtable
define internal i32 @ckn_key_hash_func(ptr noundef readonly captures(none) %0) #5 {
  %2 = load ptr, ptr %0, align 8
  %3 = getelementptr inbounds nuw i8, ptr %0, i64 8
  %4 = load i32, ptr %3, align 8
  %5 = zext i32 %4 to i64
  %.not = icmp eq i32 %4, 0
  br i1 %.not, label %._crit_edge, label %.lr.ph

.lr.ph:                                           ; preds = %1, %.lr.ph
  %.011 = phi i64 [ %13, %.lr.ph ], [ 0, %1 ]
  %.0910 = phi i32 [ %12, %.lr.ph ], [ 0, %1 ]
  %6 = getelementptr i8, ptr %2, i64 %.011
  %7 = load i8, ptr %6, align 1
  %8 = zext i8 %7 to i32
  %.0.tr = trunc i64 %.011 to i32
  %9 = shl i32 %.0.tr, 3
  %10 = and i32 %9, 24
  %11 = shl nuw i32 %8, %10
  %12 = xor i32 %11, %.0910
  %13 = add nuw nsw i64 %.011, 1
  %exitcond.not = icmp eq i64 %13, %5
  br i1 %exitcond.not, label %._crit_edge, label %.lr.ph, !llvm.loop !11

._crit_edge:                                      ; preds = %.lr.ph, %1
  %.09.lcssa = phi i32 [ 0, %1 ], [ %12, %.lr.ph ]
  ret i32 %.09.lcssa
}